; Function Attrs: mustprogress nounwind willreturn memory(argmem: readwrite, inaccessiblemem: readwrite) uwtable
define hidden void @png_free_default(ptr noalias noundef readnone %0, ptr noundef %1) local_unnamed_addr #6 {
  %3 = icmp eq ptr %0, null
  %4 = icmp eq ptr %1, null
  %or.cond = or i1 %3, %4
  br i1 %or.cond, label %6, label %5

5:                                                ; preds = %2
  tail call void @free(ptr noundef nonnull %1) #11
  br label %6

6:                                                ; preds = %2, %5
  ret void
}